#include <math.h>
#include <stdio.h>
#include <stdlib.h>
#include <string.h>

int main()
{
    int n,a,b,c,e,f,g;
    scanf("%d",&n);
    a=(int)(n/1000);
    e=n-1000*a;
    b=(int)(e/100);
    f=e-100*b;
    c=(int)(f/10);
    g=f-10*c;
    if(n>=10000)
    {printf("00001");
}
else
{
    if(n>=1000)
    {printf("%d%d%d%d",g,c,b,a);
}
else
{if(n>=100)
{
           printf("%d%d%d",g,c,b);
           }
           else
           {if(n>=10)
           {printf("%d%d",g,c);
           }
           else
           {printf("%d",g);
           }
           }
           }
           }
    return 0;
}
            