; ModuleID = '16/664.c'
source_filename = "16/664.c"
target datalayout = "e-m:e-p270:32:32-p271:32:32-p272:64:64-i64:64-f80:128-n8:16:32:64-S128"
target triple = "x86_64-pc-linux-gnu"

@.str = private unnamed_addr constant [3 x i8] c"%d\00", align 1
@.str.1 = private unnamed_addr constant [6 x i8] c"00001\00", align 1
@.str.2 = private unnamed_addr constant [9 x i8] c"%d%d%d%d\00", align 1
@.str.3 = private unnamed_addr constant [7 x i8] c"%d%d%d\00", align 1
@.str.4 = private unnamed_addr constant [5 x i8] c"%d%d\00", align 1

; Function Attrs: noinline nounwind uwtable
define dso_local i32 @main() #0 {
  %1 = alloca i32, align 4
  %2 = alloca i32, align 4
  %3 = alloca i32, align 4
  %4 = alloca i32, align 4
  %5 = alloca i32, align 4
  %6 = alloca i32, align 4
  %7 = alloca i32, align 4
  %8 = alloca i32, align 4
  store i32 0, i32* %1, align 4
  %9 = call i32 (i8*, ...) @__isoc99_scanf(i8* getelementptr inbounds ([3 x i8], [3 x i8]* @.str, i64 0, i64 0), i32* %2)
  %10 = load i32, i32* %2, align 4
  %11 = sdiv i32 %10, 1000
  store i32 %11, i32* %3, align 4
  %12 = load i32, i32* %2, align 4
  %13 = load i32, i32* %3, align 4
  %14 = mul nsw i32 1000, %13
  %15 = sub nsw i32 %12, %14
  store i32 %15, i32* %6, align 4
  %16 = load i32, i32* %6, align 4
  %17 = sdiv i32 %16, 100
  store i32 %17, i32* %4, align 4
  %18 = load i32, i32* %6, align 4
  %19 = load i32, i32* %4, align 4
  %20 = mul nsw i32 100, %19
  %21 = sub nsw i32 %18, %20
  store i32 %21, i32* %7, align 4
  %22 = load i32, i32* %7, align 4
  %23 = sdiv i32 %22, 10
  store i32 %23, i32* %5, align 4
  %24 = load i32, i32* %7, align 4
  %25 = load i32, i32* %5, align 4
  %26 = mul nsw i32 10, %25
  %27 = sub nsw i32 %24, %26
  store i32 %27, i32* %8, align 4
  %28 = load i32, i32* %2, align 4
  %29 = icmp sge i32 %28, 10000
  br i1 %29, label %30, label %32

30:                                               ; preds = %0
  %31 = call i32 (i8*, ...) @printf(i8* getelementptr inbounds ([6 x i8], [6 x i8]* @.str.1, i64 0, i64 0))
  br label %62

32:                                               ; preds = %0
  %33 = load i32, i32* %2, align 4
  %34 = icmp sge i32 %33, 1000
  br i1 %34, label %35, label %41

35:                                               ; preds = %32
  %36 = load i32, i32* %8, align 4
  %37 = load i32, i32* %5, align 4
  %38 = load i32, i32* %4, align 4
  %39 = load i32, i32* %3, align 4
  %40 = call i32 (i8*, ...) @printf(i8* getelementptr inbounds ([9 x i8], [9 x i8]* @.str.2, i64 0, i64 0), i32 %36, i32 %37, i32 %38, i32 %39)
  br label %61

41:                                               ; preds = %32
  %42 = load i32, i32* %2, align 4
  %43 = icmp sge i32 %42, 100
  br i1 %43, label %44, label %49

44:                                               ; preds = %41
  %45 = load i32, i32* %8, align 4
  %46 = load i32, i32* %5, align 4
  %47 = load i32, i32* %4, align 4
  %48 = call i32 (i8*, ...) @printf(i8* getelementptr inbounds ([7 x i8], [7 x i8]* @.str.3, i64 0, i64 0), i32 %45, i32 %46, i32 %47)
  br label %60

49:                                               ; preds = %41
  %50 = load i32, i32* %2, align 4
  %51 = icmp sge i32 %50, 10
  br i1 %51, label %52, label %56

52:                                               ; preds = %49
  %53 = load i32, i32* %8, align 4
  %54 = load i32, i32* %5, align 4
  %55 = call i32 (i8*, ...) @printf(i8* getelementptr inbounds ([5 x i8], [5 x i8]* @.str.4, i64 0, i64 0), i32 %53, i32 %54)
  br label %59

56:                                               ; preds = %49
  %57 = load i32, i32* %8, align 4
  %58 = call i32 (i8*, ...) @printf(i8* getelementptr inbounds ([3 x i8], [3 x i8]* @.str, i64 0, i64 0), i32 %57)
  br label %59

59:                                               ; preds = %56, %52
  br label %60

60:                                               ; preds = %59, %44
  br label %61

61:                                               ; preds = %60, %35
  br label %62

62:                                               ; preds = %61, %30
  ret i32 0
}

declare dso_local i32 @__isoc99_scanf(i8*, ...) #1

declare dso_local i32 @printf(i8*, ...) #1


!llvm.module.flags = !{!0}
!llvm.ident = !{!1}

!0 = !{i32 1, !"wchar_size", i32 4}
!1 = !{!"clang version 10.0.0-4ubuntu1 "}
